#include <math.h>
#include <stdio.h>
#include <stdlib.h>
#include <string.h>

int main(){
int n,i,j=0,k;
char s[1000];
char z[1000];
scanf("%d",&n);
for(i=0;i<n;i++)
{
scanf("%s",s);
for(j=0;s[j]!='\0';j++)
{
z[j]=s[j];
if(s[j+3]=='\0'&&s[j]=='i')
{
z[j]='\0';
}
if(s[j+2]=='\0'&&s[j]=='e'&&s[j+1]=='r')
{
z[j]='\0';
}
if(s[j+2]=='\0'&&s[j]=='l'&&s[j+1]=='y')
{
z[j]='\0';
}
}
printf("%s\n",z);
}
return 0;
}